target datalayout = "e-m:e-p270:32:32-p271:32:32-p272:64:64-i64:64-i128:128-f80:128-n8:16:32:64-S128"
target triple = "x86_64-pc-linux-gnu"

%struct.Parser = type { ptr, ptr, i32, i32, i32, ptr, ptr, ptr, i32, i32, ptr, i32, ptr, i32, i32, i32, i32, i32, %struct.growable_comment_array, ptr, i32, i32, i32 }
%struct.growable_comment_array = type { ptr, i64, i64 }
%struct.Token = type { i32, ptr, i32, i32, i32, i32, i32, ptr, ptr }

; Function Attrs: nounwind uwtable
define internal ptr @_PyPegen_name_from_token(ptr noundef %0, ptr noundef %1) #0 {
  %3 = alloca ptr, align 8
  %4 = alloca ptr, align 8
  %5 = alloca ptr, align 8
  %6 = alloca ptr, align 8
  %7 = alloca i32, align 4
  %8 = alloca ptr, align 8
  store ptr %0, ptr %4, align 8, !tbaa !4
  store ptr %1, ptr %5, align 8, !tbaa !4
  %9 = load ptr, ptr %5, align 8, !tbaa !4
  %10 = icmp eq ptr %9, null
  br i1 %10, label %11, label %12

11:                                               ; preds = %2
  store ptr null, ptr %3, align 8
  br label %51

12:                                               ; preds = %2
  call void @llvm.lifetime.start.p0(i64 8, ptr %6) #10
  %13 = load ptr, ptr %5, align 8, !tbaa !4
  %14 = getelementptr inbounds nuw %struct.Token, ptr %13, i32 0, i32 1
  %15 = load ptr, ptr %14, align 8, !tbaa !72
  %16 = call ptr @PyBytes_AsString(ptr noundef %15)
  store ptr %16, ptr %6, align 8, !tbaa !21
  %17 = load ptr, ptr %6, align 8, !tbaa !21
  %18 = icmp ne ptr %17, null
  br i1 %18, label %22, label %19

19:                                               ; preds = %12
  %20 = load ptr, ptr %4, align 8, !tbaa !4
  %21 = getelementptr inbounds nuw %struct.Parser, ptr %20, i32 0, i32 15
  store i32 1, ptr %21, align 8, !tbaa !86
  store ptr null, ptr %3, align 8
  store i32 1, ptr %7, align 4
  br label %50

22:                                               ; preds = %12
  call void @llvm.lifetime.start.p0(i64 8, ptr %8) #10
  %23 = load ptr, ptr %4, align 8, !tbaa !4
  %24 = load ptr, ptr %6, align 8, !tbaa !21
  %25 = call ptr @_PyPegen_new_identifier(ptr noundef %23, ptr noundef %24)
  store ptr %25, ptr %8, align 8, !tbaa !19
  %26 = load ptr, ptr %8, align 8, !tbaa !19
  %27 = icmp eq ptr %26, null
  br i1 %27, label %28, label %31

28:                                               ; preds = %22
  %29 = load ptr, ptr %4, align 8, !tbaa !4
  %30 = getelementptr inbounds nuw %struct.Parser, ptr %29, i32 0, i32 15
  store i32 1, ptr %30, align 8, !tbaa !86
  store ptr null, ptr %3, align 8
  store i32 1, ptr %7, align 4
  br label %49

31:                                               ; preds = %22
  %32 = load ptr, ptr %8, align 8, !tbaa !19
  %33 = load ptr, ptr %5, align 8, !tbaa !4
  %34 = getelementptr inbounds nuw %struct.Token, ptr %33, i32 0, i32 3
  %35 = load i32, ptr %34, align 4, !tbaa !78
  %36 = load ptr, ptr %5, align 8, !tbaa !4
  %37 = getelementptr inbounds nuw %struct.Token, ptr %36, i32 0, i32 4
  %38 = load i32, ptr %37, align 8, !tbaa !81
  %39 = load ptr, ptr %5, align 8, !tbaa !4
  %40 = getelementptr inbounds nuw %struct.Token, ptr %39, i32 0, i32 5
  %41 = load i32, ptr %40, align 4, !tbaa !83
  %42 = load ptr, ptr %5, align 8, !tbaa !4
  %43 = getelementptr inbounds nuw %struct.Token, ptr %42, i32 0, i32 6
  %44 = load i32, ptr %43, align 8, !tbaa !84
  %45 = load ptr, ptr %4, align 8, !tbaa !4
  %46 = getelementptr inbounds nuw %struct.Parser, ptr %45, i32 0, i32 5
  %47 = load ptr, ptr %46, align 8, !tbaa !32
  %48 = call ptr @_PyAST_Name(ptr noundef %32, i32 noundef 1, i32 noundef %35, i32 noundef %38, i32 noundef %41, i32 noundef %44, ptr noundef %47)
  store ptr %48, ptr %3, align 8
  store i32 1, ptr %7, align 4
  br label %49

49:                                               ; preds = %31, %28
  call void @llvm.lifetime.end.p0(i64 8, ptr %8) #10
  br label %50

50:                                               ; preds = %49, %19
  call void @llvm.lifetime.end.p0(i64 8, ptr %6) #10
  br label %51

51:                                               ; preds = %50, %11
  %52 = load ptr, ptr %3, align 8
  ret ptr %52
}

; Function Attrs: nounwind uwtable
define hidden ptr @_PyPegen_expect_token(ptr noundef %0, i32 noundef %1) #0 {
  %3 = alloca ptr, align 8
  %4 = alloca ptr, align 8
  %5 = alloca i32, align 4
  %6 = alloca ptr, align 8
  %7 = alloca i32, align 4
  store ptr %0, ptr %4, align 8, !tbaa !4
  store i32 %1, ptr %5, align 4, !tbaa !18
  %8 = load ptr, ptr %4, align 8, !tbaa !4
  %9 = getelementptr inbounds nuw %struct.Parser, ptr %8, i32 0, i32 2
  %10 = load i32, ptr %9, align 8, !tbaa !38
  %11 = load ptr, ptr %4, align 8, !tbaa !4
  %12 = getelementptr inbounds nuw %struct.Parser, ptr %11, i32 0, i32 3
  %13 = load i32, ptr %12, align 4, !tbaa !59
  %14 = icmp eq i32 %10, %13
  br i1 %14, label %15, label %23

15:                                               ; preds = %2
  %16 = load ptr, ptr %4, align 8, !tbaa !4
  %17 = call i32 @_PyPegen_fill_token(ptr noundef %16)
  %18 = icmp slt i32 %17, 0
  br i1 %18, label %19, label %22

19:                                               ; preds = %15
  %20 = load ptr, ptr %4, align 8, !tbaa !4
  %21 = getelementptr inbounds nuw %struct.Parser, ptr %20, i32 0, i32 15
  store i32 1, ptr %21, align 8, !tbaa !86
  store ptr null, ptr %3, align 8
  br label %46

22:                                               ; preds = %15
  br label %23

23:                                               ; preds = %22, %2
  call void @llvm.lifetime.start.p0(i64 8, ptr %6) #10
  %24 = load ptr, ptr %4, align 8, !tbaa !4
  %25 = getelementptr inbounds nuw %struct.Parser, ptr %24, i32 0, i32 1
  %26 = load ptr, ptr %25, align 8, !tbaa !40
  %27 = load ptr, ptr %4, align 8, !tbaa !4
  %28 = getelementptr inbounds nuw %struct.Parser, ptr %27, i32 0, i32 2
  %29 = load i32, ptr %28, align 8, !tbaa !38
  %30 = sext i32 %29 to i64
  %31 = getelementptr ptr, ptr %26, i64 %30
  %32 = load ptr, ptr %31, align 8, !tbaa !4
  store ptr %32, ptr %6, align 8, !tbaa !4
  %33 = load ptr, ptr %6, align 8, !tbaa !4
  %34 = getelementptr inbounds nuw %struct.Token, ptr %33, i32 0, i32 0
  %35 = load i32, ptr %34, align 8, !tbaa !70
  %36 = load i32, ptr %5, align 4, !tbaa !18
  %37 = icmp ne i32 %35, %36
  br i1 %37, label %38, label %39

38:                                               ; preds = %23
  store ptr null, ptr %3, align 8
  store i32 1, ptr %7, align 4
  br label %45

39:                                               ; preds = %23
  %40 = load ptr, ptr %4, align 8, !tbaa !4
  %41 = getelementptr inbounds nuw %struct.Parser, ptr %40, i32 0, i32 2
  %42 = load i32, ptr %41, align 8, !tbaa !38
  %43 = add i32 %42, 1
  store i32 %43, ptr %41, align 8, !tbaa !38
  %44 = load ptr, ptr %6, align 8, !tbaa !4
  store ptr %44, ptr %3, align 8
  store i32 1, ptr %7, align 4
  br label %45

45:                                               ; preds = %39, %38
  call void @llvm.lifetime.end.p0(i64 8, ptr %6) #10
  br label %46

46:                                               ; preds = %45, %19
  %47 = load ptr, ptr %3, align 8
  ret ptr %47
}

; Function Attrs: nounwind uwtable
define hidden ptr @_PyPegen_soft_keyword_token(ptr noundef %0) #0 {
  %2 = alloca ptr, align 8
  %3 = alloca ptr, align 8
  %4 = alloca ptr, align 8
  %5 = alloca i32, align 4
  %6 = alloca ptr, align 8
  %7 = alloca i64, align 8
  %8 = alloca ptr, align 8
  store ptr %0, ptr %3, align 8, !tbaa !4
  call void @llvm.lifetime.start.p0(i64 8, ptr %4) #10
  %9 = load ptr, ptr %3, align 8, !tbaa !4
  %10 = call ptr @_PyPegen_expect_token(ptr noundef %9, i32 noundef 1)
  store ptr %10, ptr %4, align 8, !tbaa !4
  %11 = load ptr, ptr %4, align 8, !tbaa !4
  %12 = icmp eq ptr %11, null
  br i1 %12, label %13, label %14

13:                                               ; preds = %1
  store ptr null, ptr %2, align 8
  store i32 1, ptr %5, align 4
  br label %46

14:                                               ; preds = %1
  call void @llvm.lifetime.start.p0(i64 8, ptr %6) #10
  call void @llvm.lifetime.start.p0(i64 8, ptr %7) #10
  %15 = load ptr, ptr %4, align 8, !tbaa !4
  %16 = getelementptr inbounds nuw %struct.Token, ptr %15, i32 0, i32 1
  %17 = load ptr, ptr %16, align 8, !tbaa !72
  %18 = call i32 @PyBytes_AsStringAndSize(ptr noundef %17, ptr noundef %6, ptr noundef %7)
  call void @llvm.lifetime.start.p0(i64 8, ptr %8) #10
  %19 = load ptr, ptr %3, align 8, !tbaa !4
  %20 = getelementptr inbounds nuw %struct.Parser, ptr %19, i32 0, i32 7
  %21 = load ptr, ptr %20, align 8, !tbaa !110
  store ptr %21, ptr %8, align 8, !tbaa !111
  br label %22

22:                                               ; preds = %39, %14
  %23 = load ptr, ptr %8, align 8, !tbaa !111
  %24 = load ptr, ptr %23, align 8, !tbaa !21
  %25 = icmp ne ptr %24, null
  br i1 %25, label %27, label %26

26:                                               ; preds = %22
  store i32 2, ptr %5, align 4
  br label %42

27:                                               ; preds = %22
  %28 = load ptr, ptr %8, align 8, !tbaa !111
  %29 = load ptr, ptr %28, align 8, !tbaa !21
  %30 = load ptr, ptr %6, align 8, !tbaa !21
  %31 = load i64, ptr %7, align 8, !tbaa !20
  %32 = call i32 @strncmp(ptr noundef %29, ptr noundef %30, i64 noundef %31) #11
  %33 = icmp eq i32 %32, 0
  br i1 %33, label %34, label %38

34:                                               ; preds = %27
  %35 = load ptr, ptr %3, align 8, !tbaa !4
  %36 = load ptr, ptr %4, align 8, !tbaa !4
  %37 = call ptr @_PyPegen_name_from_token(ptr noundef %35, ptr noundef %36)
  store ptr %37, ptr %2, align 8
  store i32 1, ptr %5, align 4
  br label %42

38:                                               ; preds = %27
  br label %39

39:                                               ; preds = %38
  %40 = load ptr, ptr %8, align 8, !tbaa !111
  %41 = getelementptr ptr, ptr %40, i32 1
  store ptr %41, ptr %8, align 8, !tbaa !111
  br label %22, !llvm.loop !112

42:                                               ; preds = %34, %26
  call void @llvm.lifetime.end.p0(i64 8, ptr %8) #10
  %43 = load i32, ptr %5, align 4
  switch i32 %43, label %45 [
    i32 2, label %44
  ]

44:                                               ; preds = %42
  store ptr null, ptr %2, align 8
  store i32 1, ptr %5, align 4
  br label %45

45:                                               ; preds = %44, %42
  call void @llvm.lifetime.end.p0(i64 8, ptr %7) #10
  call void @llvm.lifetime.end.p0(i64 8, ptr %6) #10
  br label %46

46:                                               ; preds = %45, %13
  call void @llvm.lifetime.end.p0(i64 8, ptr %4) #10
  %47 = load ptr, ptr %2, align 8
  ret ptr %47
}