; Function Attrs: nounwind uwtable
define hidden ptr @_PyPegen_soft_keyword_token(ptr noundef %0) local_unnamed_addr #1 {
  %2 = alloca ptr, align 8
  %3 = alloca i64, align 8
  %4 = getelementptr inbounds nuw i8, ptr %0, i64 16
  %5 = load i32, ptr %4, align 8, !tbaa !33
  %6 = getelementptr inbounds nuw i8, ptr %0, i64 20
  %7 = load i32, ptr %6, align 4, !tbaa !62
  %8 = icmp eq i32 %5, %7
  br i1 %8, label %9, label %14

9:                                                ; preds = %1
  %10 = tail call i32 @_PyPegen_fill_token(ptr noundef nonnull %0)
  %11 = icmp slt i32 %10, 0
  br i1 %11, label %12, label %._crit_edge.i

._crit_edge.i:                                    ; preds = %9
  %.pre.i = load i32, ptr %4, align 8, !tbaa !33
  br label %14

12:                                               ; preds = %9
  %13 = getelementptr inbounds nuw i8, ptr %0, i64 96
  store i32 1, ptr %13, align 8, !tbaa !87
  br label %_PyPegen_expect_token.exit.thread

14:                                               ; preds = %._crit_edge.i, %1
  %15 = phi i32 [ %.pre.i, %._crit_edge.i ], [ %5, %1 ]
  %16 = getelementptr inbounds nuw i8, ptr %0, i64 8
  %17 = load ptr, ptr %16, align 8, !tbaa !35
  %18 = sext i32 %15 to i64
  %19 = getelementptr ptr, ptr %17, i64 %18
  %20 = load ptr, ptr %19, align 8, !tbaa !36
  %21 = load i32, ptr %20, align 8, !tbaa !71
  %.not.i = icmp eq i32 %21, 1
  br i1 %.not.i, label %22, label %_PyPegen_expect_token.exit.thread

22:                                               ; preds = %14
  %23 = add i32 %15, 1
  store i32 %23, ptr %4, align 8, !tbaa !33
  call void @llvm.lifetime.start.p0(i64 8, ptr nonnull %2) #13
  call void @llvm.lifetime.start.p0(i64 8, ptr nonnull %3) #13
  %24 = getelementptr inbounds nuw i8, ptr %20, i64 8
  %25 = load ptr, ptr %24, align 8, !tbaa !73
  %26 = call i32 @PyBytes_AsStringAndSize(ptr noundef %25, ptr noundef nonnull %2, ptr noundef nonnull %3) #13
  %27 = getelementptr inbounds nuw i8, ptr %0, i64 48
  %28 = load ptr, ptr %27, align 8, !tbaa !108
  %29 = load ptr, ptr %28, align 8, !tbaa !109
  %.not17 = icmp eq ptr %29, null
  br i1 %.not17, label %_PyPegen_name_from_token.exit, label %.lr.ph

.lr.ph:                                           ; preds = %22
  %30 = load ptr, ptr %2, align 8, !tbaa !109
  %31 = load i64, ptr %3, align 8, !tbaa !110
  br label %35

32:                                               ; preds = %35
  %33 = getelementptr i8, ptr %.018, i64 8
  %34 = load ptr, ptr %33, align 8, !tbaa !109
  %.not = icmp eq ptr %34, null
  br i1 %.not, label %_PyPegen_name_from_token.exit, label %35, !llvm.loop !111

35:                                               ; preds = %.lr.ph, %32
  %36 = phi ptr [ %29, %.lr.ph ], [ %34, %32 ]
  %.018 = phi ptr [ %28, %.lr.ph ], [ %33, %32 ]
  %37 = call i32 @strncmp(ptr noundef nonnull %36, ptr noundef %30, i64 noundef %31) #14
  %38 = icmp eq i32 %37, 0
  br i1 %38, label %39, label %32

39:                                               ; preds = %35
  %40 = load ptr, ptr %24, align 8, !tbaa !73
  %41 = call ptr @PyBytes_AsString(ptr noundef %40) #13
  %.not.i14 = icmp eq ptr %41, null
  br i1 %.not.i14, label %42, label %44

42:                                               ; preds = %39
  %43 = getelementptr inbounds nuw i8, ptr %0, i64 96
  store i32 1, ptr %43, align 8, !tbaa !87
  br label %_PyPegen_name_from_token.exit

44:                                               ; preds = %39
  %45 = call ptr @_PyPegen_new_identifier(ptr noundef %0, ptr noundef nonnull %41)
  %46 = icmp eq ptr %45, null
  br i1 %46, label %47, label %49

47:                                               ; preds = %44
  %48 = getelementptr inbounds nuw i8, ptr %0, i64 96
  store i32 1, ptr %48, align 8, !tbaa !87
  br label %_PyPegen_name_from_token.exit

49:                                               ; preds = %44
  %50 = getelementptr inbounds nuw i8, ptr %20, i64 20
  %51 = load i32, ptr %50, align 4, !tbaa !79
  %52 = getelementptr inbounds nuw i8, ptr %20, i64 24
  %53 = load i32, ptr %52, align 8, !tbaa !83
  %54 = getelementptr inbounds nuw i8, ptr %20, i64 28
  %55 = load i32, ptr %54, align 4, !tbaa !84
  %56 = getelementptr inbounds nuw i8, ptr %20, i64 32
  %57 = load i32, ptr %56, align 8, !tbaa !85
  %58 = getelementptr inbounds nuw i8, ptr %0, i64 32
  %59 = load ptr, ptr %58, align 8, !tbaa !28
  %60 = call ptr @_PyAST_Name(ptr noundef nonnull %45, i32 noundef 1, i32 noundef %51, i32 noundef %53, i32 noundef %55, i32 noundef %57, ptr noundef %59) #13
  br label %_PyPegen_name_from_token.exit

_PyPegen_name_from_token.exit:                    ; preds = %32, %22, %49, %47, %42
  %spec.select = phi ptr [ null, %42 ], [ null, %47 ], [ %60, %49 ], [ null, %22 ], [ null, %32 ]
  call void @llvm.lifetime.end.p0(i64 8, ptr nonnull %3) #13
  call void @llvm.lifetime.end.p0(i64 8, ptr nonnull %2) #13
  br label %_PyPegen_expect_token.exit.thread

_PyPegen_expect_token.exit.thread:                ; preds = %14, %12, %_PyPegen_name_from_token.exit
  %.011 = phi ptr [ %spec.select, %_PyPegen_name_from_token.exit ], [ null, %12 ], [ null, %14 ]
  ret ptr %.011
}